; ModuleID = 'source-C-CXX/44/938.c'
source_filename = "source-C-CXX/44/938.c"
target datalayout = "e-m:e-p270:32:32-p271:32:32-p272:64:64-i64:64-f80:128-n8:16:32:64-S128"
target triple = "x86_64-pc-linux-gnu"

@.str = private unnamed_addr constant [6 x i8] c"%s %s\00", align 1
@.str.1 = private unnamed_addr constant [3 x i8] c"%d\00", align 1

; Function Attrs: nofree nounwind sspstrong uwtable
define dso_local i32 @main() local_unnamed_addr #0 {
  %1 = alloca [51 x i8], align 16
  %2 = alloca [51 x i8], align 16
  %3 = getelementptr inbounds [51 x i8], [51 x i8]* %1, i64 0, i64 0
  call void @llvm.lifetime.start.p0i8(i64 51, i8* nonnull %3) #4
  %4 = getelementptr inbounds [51 x i8], [51 x i8]* %2, i64 0, i64 0
  call void @llvm.lifetime.start.p0i8(i64 51, i8* nonnull %4) #4
  %5 = call i32 (i8*, ...) @__isoc99_scanf(i8* getelementptr inbounds ([6 x i8], [6 x i8]* @.str, i64 0, i64 0), [51 x i8]* nonnull %1, [51 x i8]* nonnull %2)
  %6 = call i64 @strlen(i8* noundef nonnull %4) #5
  %7 = call i64 @strlen(i8* noundef nonnull %3) #5
  %8 = sub i64 %6, %7
  %9 = trunc i64 %8 to i32
  %10 = load i8, i8* %3, align 16
  %11 = icmp sgt i32 %9, -1
  %12 = trunc i64 %7 to i32
  %13 = icmp sgt i32 %12, 0
  %14 = select i1 %11, i1 %13, i1 false
  br i1 %14, label %15, label %42

15:                                               ; preds = %0
  %16 = add i64 %6, 1
  %17 = sub i64 %16, %7
  %18 = and i64 %17, 4294967295
  %19 = and i64 %7, 4294967295
  br label %20

20:                                               ; preds = %15, %36
  %21 = phi i64 [ 0, %15 ], [ %37, %36 ]
  %22 = getelementptr inbounds [51 x i8], [51 x i8]* %2, i64 0, i64 %21
  %23 = load i8, i8* %22, align 1, !tbaa !5
  %24 = icmp eq i8 %23, %10
  br i1 %24, label %27, label %36

25:                                               ; preds = %27
  %26 = icmp eq i64 %35, %19
  br i1 %26, label %39, label %27, !llvm.loop !8

27:                                               ; preds = %20, %25
  %28 = phi i64 [ %35, %25 ], [ 0, %20 ]
  %29 = add nuw nsw i64 %28, %21
  %30 = getelementptr inbounds [51 x i8], [51 x i8]* %2, i64 0, i64 %29
  %31 = load i8, i8* %30, align 1, !tbaa !5
  %32 = getelementptr inbounds [51 x i8], [51 x i8]* %1, i64 0, i64 %28
  %33 = load i8, i8* %32, align 1, !tbaa !5
  %34 = icmp eq i8 %31, %33
  %35 = add nuw nsw i64 %28, 1
  br i1 %34, label %25, label %36

36:                                               ; preds = %27, %20
  %37 = add nuw nsw i64 %21, 1
  %38 = icmp eq i64 %37, %18
  br i1 %38, label %42, label %20, !llvm.loop !10

39:                                               ; preds = %25
  %40 = trunc i64 %21 to i32
  %41 = call i32 (i8*, ...) @printf(i8* nonnull dereferenceable(1) getelementptr inbounds ([3 x i8], [3 x i8]* @.str.1, i64 0, i64 0), i32 %40)
  br label %42

42:                                               ; preds = %36, %0, %39
  call void @llvm.lifetime.end.p0i8(i64 51, i8* nonnull %4) #4
  call void @llvm.lifetime.end.p0i8(i64 51, i8* nonnull %3) #4
  ret i32 0
}

; Function Attrs: argmemonly mustprogress nofree nosync nounwind willreturn
declare void @llvm.lifetime.start.p0i8(i64 immarg, i8* nocapture) #1

; Function Attrs: nofree nounwind
declare noundef i32 @__isoc99_scanf(i8* nocapture noundef readonly, ...) local_unnamed_addr #2

; Function Attrs: argmemonly mustprogress nofree nounwind readonly willreturn
declare i64 @strlen(i8* nocapture) local_unnamed_addr #3

; Function Attrs: nofree nounwind
declare noundef i32 @printf(i8* nocapture noundef readonly, ...) local_unnamed_addr #2

; Function Attrs: argmemonly mustprogress nofree nosync nounwind willreturn
declare void @llvm.lifetime.end.p0i8(i64 immarg, i8* nocapture) #1


!llvm.module.flags = !{!0, !1, !2, !3}
!llvm.ident = !{!4}

!0 = !{i32 1, !"wchar_size", i32 4}
!1 = !{i32 7, !"PIC Level", i32 2}
!2 = !{i32 7, !"PIE Level", i32 2}
!3 = !{i32 7, !"uwtable", i32 1}
!4 = !{!"clang version 13.0.0"}
!5 = !{!6, !6, i64 0}
!6 = !{!"omnipotent char", !7, i64 0}
!7 = !{!"Simple C/C++ TBAA"}
!8 = distinct !{!8, !9}
!9 = !{!"llvm.loop.mustprogress"}
!10 = distinct !{!10, !9}
